target datalayout = "e-m:e-p270:32:32-p271:32:32-p272:64:64-i64:64-i128:128-f80:128-n8:16:32:64-S128"
target triple = "x86_64-pc-linux-gnu"

%struct.USystemParams = type { ptr, ptr, ptr, i32 }

; Function Attrs: inlinehint mustprogress nounwind uwtable
define internal noundef signext i8 @_ZL9U_FAILURE10UErrorCode(i32 noundef %0) #2 {
  %2 = alloca i32, align 4
  store i32 %0, ptr %2, align 4, !tbaa !15
  %3 = load i32, ptr %2, align 4, !tbaa !15
  %4 = icmp sgt i32 %3, 0
  %5 = zext i1 %4 to i8
  ret i8 %5
}

; Function Attrs: mustprogress uwtable
define i32 @paramEmpty(ptr noundef %0, ptr noundef %1, i32 noundef %2, ptr noundef %3) #1 {
  %5 = alloca i32, align 4
  %6 = alloca ptr, align 8
  %7 = alloca ptr, align 8
  %8 = alloca i32, align 4
  %9 = alloca ptr, align 8
  store ptr %0, ptr %6, align 8, !tbaa !35
  store ptr %1, ptr %7, align 8, !tbaa !17
  store i32 %2, ptr %8, align 4, !tbaa !14
  store ptr %3, ptr %9, align 8, !tbaa !22
  %10 = load ptr, ptr %9, align 8, !tbaa !22
  %11 = load i32, ptr %10, align 4, !tbaa !15
  %12 = call noundef signext i8 @_ZL9U_FAILURE10UErrorCode(i32 noundef %11)
  %13 = icmp ne i8 %12, 0
  br i1 %13, label %14, label %15

14:                                               ; preds = %4
  store i32 0, ptr %5, align 4
  br label %20

15:                                               ; preds = %4
  %16 = load ptr, ptr %7, align 8, !tbaa !17
  %17 = load i32, ptr %8, align 4, !tbaa !14
  %18 = load ptr, ptr %9, align 8, !tbaa !22
  %19 = call i32 @u_terminateChars_77(ptr noundef %16, i32 noundef %17, i32 noundef 0, ptr noundef %18)
  store i32 %19, ptr %5, align 4
  br label %20

20:                                               ; preds = %15, %14
  %21 = load i32, ptr %5, align 4
  ret i32 %21
}

; Function Attrs: mustprogress uwtable
define i32 @paramStatic(ptr noundef %0, ptr noundef %1, i32 noundef %2, ptr noundef %3) #1 {
  %5 = alloca i32, align 4
  %6 = alloca ptr, align 8
  %7 = alloca ptr, align 8
  %8 = alloca i32, align 4
  %9 = alloca ptr, align 8
  %10 = alloca i32, align 4
  store ptr %0, ptr %6, align 8, !tbaa !35
  store ptr %1, ptr %7, align 8, !tbaa !17
  store i32 %2, ptr %8, align 4, !tbaa !14
  store ptr %3, ptr %9, align 8, !tbaa !22
  %11 = load ptr, ptr %6, align 8, !tbaa !35
  %12 = getelementptr inbounds nuw %struct.USystemParams, ptr %11, i32 0, i32 2
  %13 = load ptr, ptr %12, align 8, !tbaa !37
  %14 = icmp eq ptr %13, null
  br i1 %14, label %15, label %21

15:                                               ; preds = %4
  %16 = load ptr, ptr %6, align 8, !tbaa !35
  %17 = load ptr, ptr %7, align 8, !tbaa !17
  %18 = load i32, ptr %8, align 4, !tbaa !14
  %19 = load ptr, ptr %9, align 8, !tbaa !22
  %20 = call i32 @paramEmpty(ptr noundef %16, ptr noundef %17, i32 noundef %18, ptr noundef %19)
  store i32 %20, ptr %5, align 4
  br label %51

21:                                               ; preds = %4
  %22 = load ptr, ptr %9, align 8, !tbaa !22
  %23 = load i32, ptr %22, align 4, !tbaa !15
  %24 = call noundef signext i8 @_ZL9U_FAILURE10UErrorCode(i32 noundef %23)
  %25 = icmp ne i8 %24, 0
  br i1 %25, label %26, label %27

26:                                               ; preds = %21
  store i32 0, ptr %5, align 4
  br label %51

27:                                               ; preds = %21
  call void @llvm.lifetime.start.p0(i64 4, ptr %10) #13
  %28 = load ptr, ptr %6, align 8, !tbaa !35
  %29 = getelementptr inbounds nuw %struct.USystemParams, ptr %28, i32 0, i32 2
  %30 = load ptr, ptr %29, align 8, !tbaa !37
  %31 = call i64 @strlen(ptr noundef %30) #21
  %32 = trunc i64 %31 to i32
  store i32 %32, ptr %10, align 4, !tbaa !14
  %33 = load ptr, ptr %7, align 8, !tbaa !17
  %34 = icmp ne ptr %33, null
  br i1 %34, label %35, label %45

35:                                               ; preds = %27
  %36 = load ptr, ptr %7, align 8, !tbaa !17
  %37 = load ptr, ptr %6, align 8, !tbaa !35
  %38 = getelementptr inbounds nuw %struct.USystemParams, ptr %37, i32 0, i32 2
  %39 = load ptr, ptr %38, align 8, !tbaa !37
  %40 = load i32, ptr %10, align 4, !tbaa !14
  %41 = load i32, ptr %8, align 4, !tbaa !14
  %42 = call i32 @uprv_min_77(i32 noundef %40, i32 noundef %41)
  %43 = sext i32 %42 to i64
  %44 = call ptr @strncpy(ptr noundef %36, ptr noundef %39, i64 noundef %43) #13
  br label %45

45:                                               ; preds = %35, %27
  %46 = load ptr, ptr %7, align 8, !tbaa !17
  %47 = load i32, ptr %8, align 4, !tbaa !14
  %48 = load i32, ptr %10, align 4, !tbaa !14
  %49 = load ptr, ptr %9, align 8, !tbaa !22
  %50 = call i32 @u_terminateChars_77(ptr noundef %46, i32 noundef %47, i32 noundef %48, ptr noundef %49)
  store i32 %50, ptr %5, align 4
  call void @llvm.lifetime.end.p0(i64 4, ptr %10) #13
  br label %51

51:                                               ; preds = %45, %26, %15
  %52 = load i32, ptr %5, align 4
  ret i32 %52
}