; Function Attrs: mustprogress uwtable
define i32 @paramStatic(ptr noundef readonly captures(none) %0, ptr noundef %1, i32 noundef %2, ptr noundef %3) #1 {
  %5 = getelementptr inbounds nuw i8, ptr %0, i64 16
  %6 = load ptr, ptr %5, align 8, !tbaa !22
  %7 = icmp eq ptr %6, null
  %8 = load i32, ptr %3, align 4, !tbaa !13
  %9 = icmp slt i32 %8, 1
  br i1 %7, label %10, label %11

10:                                               ; preds = %4
  br i1 %9, label %paramEmpty.exit.sink.split, label %paramEmpty.exit

11:                                               ; preds = %4
  br i1 %9, label %12, label %paramEmpty.exit

12:                                               ; preds = %11
  %13 = tail call i64 @strlen(ptr noundef nonnull dereferenceable(1) %6) #29
  %14 = trunc i64 %13 to i32
  %.not17 = icmp eq ptr %1, null
  br i1 %.not17, label %paramEmpty.exit.sink.split, label %15

15:                                               ; preds = %12
  %16 = tail call i32 @uprv_min_77(i32 noundef %14, i32 noundef %2)
  %17 = sext i32 %16 to i64
  %18 = tail call ptr @strncpy(ptr noundef nonnull %1, ptr noundef nonnull %6, i64 noundef %17) #26
  br label %paramEmpty.exit.sink.split

paramEmpty.exit.sink.split:                       ; preds = %12, %15, %10
  %.sink = phi i32 [ 0, %10 ], [ %14, %15 ], [ %14, %12 ]
  %19 = tail call i32 @u_terminateChars_77(ptr noundef %1, i32 noundef %2, i32 noundef %.sink, ptr noundef nonnull %3)
  br label %paramEmpty.exit

paramEmpty.exit:                                  ; preds = %paramEmpty.exit.sink.split, %10, %11
  %.0 = phi i32 [ 0, %11 ], [ 0, %10 ], [ %19, %paramEmpty.exit.sink.split ]
  ret i32 %.0
}